target datalayout = "e-m:e-p270:32:32-p271:32:32-p272:64:64-i64:64-i128:128-f80:128-n8:16:32:64-S128"
target triple = "x86_64-pc-linux-gnu"

; Function Attrs: nounwind uwtable
define hidden i32 @SDL_GetDefaultColorspaceForFormat(i32 noundef %0) #0 {
  %2 = alloca i32, align 4
  %3 = alloca i32, align 4
  store i32 %0, ptr %3, align 4
  %4 = load i32, ptr %3, align 4
  %5 = icmp ne i32 %4, 0
  br i1 %5, label %6, label %20

6:                                                ; preds = %1
  %7 = load i32, ptr %3, align 4
  %8 = lshr i32 %7, 28
  %9 = and i32 %8, 15
  %10 = icmp ne i32 %9, 1
  br i1 %10, label %11, label %20

11:                                               ; preds = %6
  %12 = load i32, ptr %3, align 4
  %13 = icmp eq i32 %12, 1196444237
  br i1 %13, label %14, label %15

14:                                               ; preds = %11
  store i32 301991328, ptr %2, align 4
  br label %59

15:                                               ; preds = %11
  %16 = load i32, ptr %3, align 4
  %17 = icmp eq i32 %16, 808530000
  br i1 %17, label %18, label %19

18:                                               ; preds = %15
  store i32 301999616, ptr %2, align 4
  br label %59

19:                                               ; preds = %15
  store i32 570426566, ptr %2, align 4
  br label %59

20:                                               ; preds = %6, %1
  %21 = load i32, ptr %3, align 4
  %22 = icmp ne i32 %21, 0
  br i1 %22, label %23, label %28

23:                                               ; preds = %20
  %24 = load i32, ptr %3, align 4
  %25 = lshr i32 %24, 28
  %26 = and i32 %25, 15
  %27 = icmp ne i32 %26, 1
  br i1 %27, label %39, label %28

28:                                               ; preds = %23, %20
  %29 = load i32, ptr %3, align 4
  %30 = lshr i32 %29, 24
  %31 = and i32 %30, 15
  %32 = icmp eq i32 %31, 10
  br i1 %32, label %38, label %33

33:                                               ; preds = %28
  %34 = load i32, ptr %3, align 4
  %35 = lshr i32 %34, 24
  %36 = and i32 %35, 15
  %37 = icmp eq i32 %36, 11
  br i1 %37, label %38, label %39

38:                                               ; preds = %33, %28
  store i32 301991168, ptr %2, align 4
  br label %59

39:                                               ; preds = %33, %23
  %40 = load i32, ptr %3, align 4
  %41 = icmp ne i32 %40, 0
  br i1 %41, label %42, label %47

42:                                               ; preds = %39
  %43 = load i32, ptr %3, align 4
  %44 = lshr i32 %43, 28
  %45 = and i32 %44, 15
  %46 = icmp ne i32 %45, 1
  br i1 %46, label %58, label %47

47:                                               ; preds = %42, %39
  %48 = load i32, ptr %3, align 4
  %49 = lshr i32 %48, 24
  %50 = and i32 %49, 15
  %51 = icmp eq i32 %50, 6
  br i1 %51, label %52, label %58

52:                                               ; preds = %47
  %53 = load i32, ptr %3, align 4
  %54 = lshr i32 %53, 16
  %55 = and i32 %54, 15
  %56 = icmp eq i32 %55, 7
  br i1 %56, label %57, label %58

57:                                               ; preds = %52
  store i32 301999616, ptr %2, align 4
  br label %59

58:                                               ; preds = %52, %47, %42
  store i32 301991328, ptr %2, align 4
  br label %59

59:                                               ; preds = %58, %57, %38, %19, %18, %14
  %60 = load i32, ptr %2, align 4
  ret i32 %60
}