; Function Attrs: mustprogress nofree norecurse nosync nounwind willreturn memory(none) uwtable
define hidden range(i32 301991168, 570426567) i32 @SDL_GetDefaultColorspaceForFormat(i32 noundef %0) local_unnamed_addr #0 {
  %.not = icmp eq i32 %0, 0
  %.mask = and i32 %0, -268435456
  %.not15 = icmp eq i32 %.mask, 268435456
  %or.cond = or i1 %.not, %.not15
  br i1 %or.cond, label %3, label %2

2:                                                ; preds = %1
  %switch.selectcmp = icmp eq i32 %0, 808530000
  %switch.select = select i1 %switch.selectcmp, i32 301999616, i32 570426566
  %switch.selectcmp26 = icmp eq i32 %0, 1196444237
  %switch.select27 = select i1 %switch.selectcmp26, i32 301991328, i32 %switch.select
  br label %7

3:                                                ; preds = %1
  %4 = and i32 %0, 234881024
  %switch = icmp eq i32 %4, 167772160
  br i1 %switch, label %7, label %5

5:                                                ; preds = %3
  %6 = and i32 %0, 252641280
  %or.cond25 = icmp eq i32 %6, 101122048
  %spec.select = select i1 %or.cond25, i32 301999616, i32 301991328
  br label %7

7:                                                ; preds = %5, %3, %2
  %.0 = phi i32 [ 301991168, %3 ], [ %switch.select27, %2 ], [ %spec.select, %5 ]
  ret i32 %.0
}